target datalayout = "e-m:e-p270:32:32-p271:32:32-p272:64:64-i64:64-i128:128-f80:128-n8:16:32:64-S128"
target triple = "x86_64-pc-linux-gnu"

%struct.VkComponentMapping = type { i32, i32, i32, i32 }
%struct.SDL_AtomicInt = type { i32 }
%struct.VulkanRenderer = type { ptr, ptr, %struct.VkPhysicalDeviceProperties2, %struct.VkPhysicalDeviceDriverProperties, %struct.VkPhysicalDeviceFeatures, ptr, i8, i8, i8, i8, i8, i8, i32, i32, %struct.VulkanExtensions, i8, i8, i8, i8, ptr, %struct.VkPhysicalDeviceMemoryProperties, i8, ptr, i32, i32, i32, ptr, ptr, i32, i32, %struct.VulkanFencePool, ptr, ptr, ptr, ptr, ptr, ptr, ptr, i32, i32, ptr, i32, i32, %struct.SDL_AtomicInt, i32, ptr, i32, i32, ptr, i32, i32, ptr, i32, i32, ptr, i32, i32, ptr, i32, i32, ptr, i32, i32, ptr, i32, i32, ptr, ptr, ptr, ptr, ptr, ptr, ptr, ptr, ptr, ptr, ptr, i8, ptr, i32, i32, ptr, ptr, ptr, ptr, ptr, ptr, ptr, ptr, ptr, ptr, ptr, ptr, ptr, ptr, ptr, ptr, ptr, ptr, ptr, ptr, ptr, ptr, ptr, ptr, ptr, ptr, ptr, ptr, ptr, ptr, ptr, ptr, ptr, ptr, ptr, ptr, ptr, ptr, ptr, ptr, ptr, ptr, ptr, ptr, ptr, ptr, ptr, ptr, ptr, ptr, ptr, ptr, ptr, ptr, ptr, ptr, ptr, ptr, ptr, ptr, ptr, ptr, ptr, ptr, ptr, ptr, ptr, ptr, ptr, ptr, ptr, ptr, ptr, ptr, ptr, ptr, ptr, ptr, ptr, ptr, ptr, ptr, ptr, ptr, ptr, ptr, ptr, ptr, ptr, ptr, ptr, ptr, ptr, ptr, ptr, ptr, ptr, ptr, ptr, ptr, ptr, ptr, ptr, ptr, ptr, ptr, ptr, ptr, ptr, ptr }
%struct.VkPhysicalDeviceProperties2 = type { i32, ptr, %struct.VkPhysicalDeviceProperties }
%struct.VkPhysicalDeviceProperties = type { i32, i32, i32, i32, i32, [256 x i8], [16 x i8], %struct.VkPhysicalDeviceLimits, %struct.VkPhysicalDeviceSparseProperties }
%struct.VkPhysicalDeviceLimits = type { i32, i32, i32, i32, i32, i32, i32, i32, i32, i32, i32, i64, i64, i32, i32, i32, i32, i32, i32, i32, i32, i32, i32, i32, i32, i32, i32, i32, i32, i32, i32, i32, i32, i32, i32, i32, i32, i32, i32, i32, i32, i32, i32, i32, i32, i32, i32, i32, i32, i32, i32, i32, [3 x i32], i32, [3 x i32], i32, i32, i32, i32, i32, float, float, i32, [2 x i32], [2 x float], i32, i64, i64, i64, i64, i32, i32, i32, i32, float, float, i32, i32, i32, i32, i32, i32, i32, i32, i32, i32, i32, i32, i32, i32, i32, i32, float, i32, i32, i32, i32, [2 x float], [2 x float], float, float, i32, i32, i64, i64, i64 }
%struct.VkPhysicalDeviceSparseProperties = type { i32, i32, i32, i32, i32 }
%struct.VkPhysicalDeviceDriverProperties = type { i32, ptr, i32, [256 x i8], [256 x i8], %struct.VkConformanceVersion }
%struct.VkConformanceVersion = type { i8, i8, i8, i8 }
%struct.VkPhysicalDeviceFeatures = type { i32, i32, i32, i32, i32, i32, i32, i32, i32, i32, i32, i32, i32, i32, i32, i32, i32, i32, i32, i32, i32, i32, i32, i32, i32, i32, i32, i32, i32, i32, i32, i32, i32, i32, i32, i32, i32, i32, i32, i32, i32, i32, i32, i32, i32, i32, i32, i32, i32, i32, i32, i32, i32, i32, i32 }
%struct.VulkanExtensions = type { i8, i8, i8, i8, i8 }
%struct.VkPhysicalDeviceMemoryProperties = type { i32, [32 x %struct.VkMemoryType], i32, [16 x %struct.VkMemoryHeap] }
%struct.VkMemoryType = type { i32, i32 }
%struct.VkMemoryHeap = type { i64, i32 }
%struct.VulkanFencePool = type { ptr, ptr, i32, i32 }
%struct.WindowData = type { ptr, i32, i32, i8, i32, i32, ptr, ptr, i32, i32, %struct.VkComponentMapping, i8, ptr, i32, i32, i32, [3 x ptr], ptr, [3 x ptr], i32 }

@.str.43 = private unnamed_addr constant [3 x i8] c"%s\00", align 1
@.str.215 = private unnamed_addr constant [32 x i8] c"SDL_GPUVulkanWindowPropertyData\00", align 1
@.str.228 = private unnamed_addr constant [54 x i8] c"Cannot wait for a swapchain from an unclaimed window!\00", align 1

; Function Attrs: nounwind uwtable
define internal ptr @VULKAN_INTERNAL_FetchWindowData(ptr noundef %0) #0 {
  %2 = alloca ptr, align 8
  %3 = alloca i32, align 4
  store ptr %0, ptr %2, align 8
  call void @llvm.lifetime.start.p0(i64 4, ptr %3) #9
  %4 = load ptr, ptr %2, align 8
  %5 = call i32 @SDL_GetWindowProperties_REAL(ptr noundef %4)
  store i32 %5, ptr %3, align 4
  %6 = load i32, ptr %3, align 4
  %7 = call ptr @SDL_GetPointerProperty_REAL(i32 noundef %6, ptr noundef @.str.215, ptr noundef null)
  call void @llvm.lifetime.end.p0(i64 4, ptr %3) #9
  ret ptr %7
}

; Function Attrs: nounwind uwtable
define internal zeroext i1 @VULKAN_WaitForSwapchain(ptr noundef %0, ptr noundef %1) #0 {
  %3 = alloca i1, align 1
  %4 = alloca ptr, align 8
  %5 = alloca ptr, align 8
  %6 = alloca ptr, align 8
  %7 = alloca ptr, align 8
  %8 = alloca i32, align 4
  store ptr %0, ptr %4, align 8
  store ptr %1, ptr %5, align 8
  call void @llvm.lifetime.start.p0(i64 8, ptr %6) #9
  %9 = load ptr, ptr %4, align 8
  store ptr %9, ptr %6, align 8
  call void @llvm.lifetime.start.p0(i64 8, ptr %7) #9
  %10 = load ptr, ptr %5, align 8
  %11 = call ptr @VULKAN_INTERNAL_FetchWindowData(ptr noundef %10)
  store ptr %11, ptr %7, align 8
  %12 = load ptr, ptr %7, align 8
  %13 = icmp eq ptr %12, null
  br i1 %13, label %14, label %25

14:                                               ; preds = %2
  br label %15

15:                                               ; preds = %14
  %16 = load ptr, ptr %6, align 8
  %17 = getelementptr inbounds nuw %struct.VulkanRenderer, ptr %16, i32 0, i32 10
  %18 = load i8, ptr %17, align 4, !range !3, !noundef !4
  %19 = trunc i8 %18 to i1
  br i1 %19, label %20, label %21

20:                                               ; preds = %15
  call void (i32, ptr, ...) @SDL_LogError_REAL(i32 noundef 9, ptr noundef @.str.43, ptr noundef @.str.228)
  br label %21

21:                                               ; preds = %20, %15
  %22 = call zeroext i1 (ptr, ...) @SDL_SetError_REAL(ptr noundef @.str.43, ptr noundef @.str.228)
  store i1 false, ptr %3, align 1
  store i32 1, ptr %8, align 4
  br label %48

23:                                               ; No predecessors!
  br label %24

24:                                               ; preds = %23
  br label %25

25:                                               ; preds = %24, %2
  %26 = load ptr, ptr %7, align 8
  %27 = getelementptr inbounds nuw %struct.WindowData, ptr %26, i32 0, i32 18
  %28 = load ptr, ptr %7, align 8
  %29 = getelementptr inbounds nuw %struct.WindowData, ptr %28, i32 0, i32 19
  %30 = load i32, ptr %29, align 8
  %31 = zext i32 %30 to i64
  %32 = getelementptr inbounds nuw [3 x ptr], ptr %27, i64 0, i64 %31
  %33 = load ptr, ptr %32, align 8
  %34 = icmp ne ptr %33, null
  br i1 %34, label %35, label %47

35:                                               ; preds = %25
  %36 = load ptr, ptr %4, align 8
  %37 = load ptr, ptr %7, align 8
  %38 = getelementptr inbounds nuw %struct.WindowData, ptr %37, i32 0, i32 18
  %39 = load ptr, ptr %7, align 8
  %40 = getelementptr inbounds nuw %struct.WindowData, ptr %39, i32 0, i32 19
  %41 = load i32, ptr %40, align 8
  %42 = zext i32 %41 to i64
  %43 = getelementptr inbounds nuw [3 x ptr], ptr %38, i64 0, i64 %42
  %44 = call zeroext i1 @VULKAN_WaitForFences(ptr noundef %36, i1 noundef zeroext true, ptr noundef %43, i32 noundef 1)
  br i1 %44, label %46, label %45

45:                                               ; preds = %35
  store i1 false, ptr %3, align 1
  store i32 1, ptr %8, align 4
  br label %48

46:                                               ; preds = %35
  br label %47

47:                                               ; preds = %46, %25
  store i1 true, ptr %3, align 1
  store i32 1, ptr %8, align 4
  br label %48

48:                                               ; preds = %47, %45, %21
  call void @llvm.lifetime.end.p0(i64 8, ptr %7) #9
  call void @llvm.lifetime.end.p0(i64 8, ptr %6) #9
  %49 = load i1, ptr %3, align 1
  ret i1 %49
}