; Function Attrs: nounwind uwtable
define internal noundef zeroext i1 @VULKAN_WaitForSwapchain(ptr noundef %0, ptr noundef %1) #0 {
  %3 = tail call i32 @SDL_GetWindowProperties_REAL(ptr noundef %1) #13
  %4 = tail call ptr @SDL_GetPointerProperty_REAL(i32 noundef %3, ptr noundef nonnull @.str.215, ptr noundef null) #13
  %5 = icmp eq ptr %4, null
  br i1 %5, label %6, label %13

6:                                                ; preds = %2
  %7 = getelementptr inbounds nuw i8, ptr %0, i64 1628
  %8 = load i8, ptr %7, align 4, !range !3, !noundef !4
  %9 = trunc nuw i8 %8 to i1
  br i1 %9, label %10, label %11

10:                                               ; preds = %6
  tail call void (i32, ptr, ...) @SDL_LogError_REAL(i32 noundef 9, ptr noundef nonnull @.str.43, ptr noundef nonnull @.str.228) #13
  br label %11

11:                                               ; preds = %10, %6
  %12 = tail call zeroext i1 (ptr, ...) @SDL_SetError_REAL(ptr noundef nonnull @.str.43, ptr noundef nonnull @.str.228) #13
  br label %23

13:                                               ; preds = %2
  %14 = getelementptr inbounds nuw i8, ptr %4, i64 136
  %15 = getelementptr inbounds nuw i8, ptr %4, i64 160
  %16 = load i32, ptr %15, align 8
  %17 = zext i32 %16 to i64
  %18 = getelementptr inbounds nuw [3 x ptr], ptr %14, i64 0, i64 %17
  %19 = load ptr, ptr %18, align 8
  %.not = icmp eq ptr %19, null
  br i1 %.not, label %22, label %20

20:                                               ; preds = %13
  %21 = tail call zeroext i1 @VULKAN_WaitForFences(ptr noundef %0, i1 noundef zeroext true, ptr noundef nonnull %18, i32 noundef 1)
  br i1 %21, label %22, label %23

22:                                               ; preds = %20, %13
  br label %23

23:                                               ; preds = %20, %22, %11
  %.0 = phi i1 [ false, %11 ], [ true, %22 ], [ false, %20 ]
  ret i1 %.0
}